target datalayout = "e-m:e-p270:32:32-p271:32:32-p272:64:64-i64:64-i128:128-f80:128-n8:16:32:64-S128"
target triple = "x86_64-pc-linux-gnu"

%struct.__ncnn_allocator_t = type { ptr, ptr, ptr }
%"class.ncnn::Mat" = type { ptr, ptr, i64, i32, ptr, i32, i32, i32, i32, i32, i64 }

; Function Attrs: mustprogress uwtable
define hidden ptr @ncnn_mat_from_pixels_roi_resize(ptr noundef %0, i32 noundef %1, i32 noundef %2, i32 noundef %3, i32 noundef %4, i32 noundef %5, i32 noundef %6, i32 noundef %7, i32 noundef %8, i32 noundef %9, i32 noundef %10, ptr noundef %11) #1 personality ptr @__gxx_personality_v0 {
  %13 = alloca ptr, align 8
  %14 = alloca i32, align 4
  %15 = alloca i32, align 4
  %16 = alloca i32, align 4
  %17 = alloca i32, align 4
  %18 = alloca i32, align 4
  %19 = alloca i32, align 4
  %20 = alloca i32, align 4
  %21 = alloca i32, align 4
  %22 = alloca i32, align 4
  %23 = alloca i32, align 4
  %24 = alloca ptr, align 8
  %25 = alloca ptr, align 8
  %26 = alloca i32, align 4
  store ptr %0, ptr %13, align 8
  store i32 %1, ptr %14, align 4
  store i32 %2, ptr %15, align 4
  store i32 %3, ptr %16, align 4
  store i32 %4, ptr %17, align 4
  store i32 %5, ptr %18, align 4
  store i32 %6, ptr %19, align 4
  store i32 %7, ptr %20, align 4
  store i32 %8, ptr %21, align 4
  store i32 %9, ptr %22, align 4
  store i32 %10, ptr %23, align 4
  store ptr %11, ptr %24, align 8
  %27 = call noalias noundef nonnull ptr @_Znwm(i64 noundef 72) #13
  %28 = load ptr, ptr %13, align 8
  %29 = load i32, ptr %14, align 4
  %30 = load i32, ptr %15, align 4
  %31 = load i32, ptr %16, align 4
  %32 = load i32, ptr %17, align 4
  %33 = load i32, ptr %18, align 4
  %34 = load i32, ptr %19, align 4
  %35 = load i32, ptr %20, align 4
  %36 = load i32, ptr %21, align 4
  %37 = load i32, ptr %22, align 4
  %38 = load i32, ptr %23, align 4
  %39 = load ptr, ptr %24, align 8
  %40 = icmp ne ptr %39, null
  br i1 %40, label %41, label %45

41:                                               ; preds = %12
  %42 = load ptr, ptr %24, align 8
  %43 = getelementptr inbounds nuw %struct.__ncnn_allocator_t, ptr %42, i32 0, i32 0
  %44 = load ptr, ptr %43, align 8
  br label %46

45:                                               ; preds = %12
  br label %46

46:                                               ; preds = %45, %41
  %47 = phi ptr [ %44, %41 ], [ null, %45 ]
  invoke void @_ZN4ncnn3Mat22from_pixels_roi_resizeEPKhiiiiiiiiiiPNS_9AllocatorE(ptr dead_on_unwind writable sret(%"class.ncnn::Mat") align 8 %27, ptr noundef %28, i32 noundef %29, i32 noundef %30, i32 noundef %31, i32 noundef %32, i32 noundef %33, i32 noundef %34, i32 noundef %35, i32 noundef %36, i32 noundef %37, i32 noundef %38, ptr noundef %47)
          to label %48 unwind label %49

48:                                               ; preds = %46
  ret ptr %27

49:                                               ; preds = %46
  %50 = landingpad { ptr, i32 }
          cleanup
  %51 = extractvalue { ptr, i32 } %50, 0
  store ptr %51, ptr %25, align 8
  %52 = extractvalue { ptr, i32 } %50, 1
  store i32 %52, ptr %26, align 4
  call void @_ZdlPvm(ptr noundef %27, i64 noundef 72) #14
  br label %53

53:                                               ; preds = %49
  %54 = load ptr, ptr %25, align 8
  %55 = load i32, ptr %26, align 4
  %56 = insertvalue { ptr, i32 } poison, ptr %54, 0
  %57 = insertvalue { ptr, i32 } %56, i32 %55, 1
  resume { ptr, i32 } %57
}