; Function Attrs: mustprogress uwtable
define hidden noundef nonnull ptr @ncnn_mat_from_pixels_roi_resize(ptr noundef %0, i32 noundef %1, i32 noundef %2, i32 noundef %3, i32 noundef %4, i32 noundef %5, i32 noundef %6, i32 noundef %7, i32 noundef %8, i32 noundef %9, i32 noundef %10, ptr noundef readonly %11) local_unnamed_addr #1 personality ptr @__gxx_personality_v0 {
  %13 = tail call noalias noundef nonnull dereferenceable(72) ptr @_Znwm(i64 noundef 72) #24
  %.not = icmp eq ptr %11, null
  br i1 %.not, label %16, label %14

14:                                               ; preds = %12
  %15 = load ptr, ptr %11, align 8
  br label %16

16:                                               ; preds = %12, %14
  %17 = phi ptr [ %15, %14 ], [ null, %12 ]
  invoke void @_ZN4ncnn3Mat22from_pixels_roi_resizeEPKhiiiiiiiiiiPNS_9AllocatorE(ptr dead_on_unwind nonnull writable sret(%"class.ncnn::Mat") align 8 %13, ptr noundef %0, i32 noundef %1, i32 noundef %2, i32 noundef %3, i32 noundef %4, i32 noundef %5, i32 noundef %6, i32 noundef %7, i32 noundef %8, i32 noundef %9, i32 noundef %10, ptr noundef %17)
          to label %18 unwind label %19

18:                                               ; preds = %16
  ret ptr %13

19:                                               ; preds = %16
  %20 = landingpad { ptr, i32 }
          cleanup
  tail call void @_ZdlPvm(ptr noundef nonnull %13, i64 noundef 72) #25
  resume { ptr, i32 } %20
}